; Function Attrs: mustprogress uwtable
define void @_ZNK6google8protobuf8compiler16GeneratorContext18GetCompilerVersionEPNS1_7VersionE(ptr nonnull readnone align 8 captures(none) %this, ptr noundef initializes((32, 44)) %version) unnamed_addr #6 align 2 personality ptr @__gxx_personality_v0 {
entry:
  %major_.i.i = getelementptr inbounds nuw i8, ptr %version, i64 32
  store i32 4, ptr %major_.i.i, align 8
  %0 = getelementptr inbounds nuw i8, ptr %version, i64 16
  %1 = load i32, ptr %0, align 4
  %minor_.i.i = getelementptr inbounds nuw i8, ptr %version, i64 36
  store i32 26, ptr %minor_.i.i, align 4
  %patch_.i.i = getelementptr inbounds nuw i8, ptr %version, i64 40
  store i32 0, ptr %patch_.i.i, align 8
  %or.i = or i32 %1, 15
  store i32 %or.i, ptr %0, align 4
  %_internal_metadata_.i = getelementptr inbounds nuw i8, ptr %version, i64 8
  %2 = load i64, ptr %_internal_metadata_.i, align 8
  %and.i.i = and i64 %2, 1
  %tobool.i.not.i = icmp eq i64 %and.i.i, 0
  br i1 %tobool.i.not.i, label %if.else.i.i, label %if.then.i.i

if.then.i.i:                                      ; preds = %entry
  %and.i1.i = and i64 %2, -2
  %3 = inttoptr i64 %and.i1.i to ptr
  %4 = load ptr, ptr %3, align 8
  br label %_ZNK6google8protobuf11MessageLite8GetArenaEv.exit

if.else.i.i:                                      ; preds = %entry
  %5 = inttoptr i64 %2 to ptr
  br label %_ZNK6google8protobuf11MessageLite8GetArenaEv.exit

_ZNK6google8protobuf11MessageLite8GetArenaEv.exit: ; preds = %if.then.i.i, %if.else.i.i
  %retval.i.0.i = phi ptr [ %4, %if.then.i.i ], [ %5, %if.else.i.i ]
  %suffix_.i = getelementptr inbounds nuw i8, ptr %version, i64 24
  tail call void @_ZN6google8protobuf8internal14ArenaStringPtr3SetESt17basic_string_viewIcSt11char_traitsIcEEPNS0_5ArenaE(ptr noundef nonnull align 8 dereferenceable(8) %suffix_.i, i64 0, ptr nonnull @.str.5, ptr noundef %retval.i.0.i)
  ret void
}